target datalayout = "e-m:e-p270:32:32-p271:32:32-p272:64:64-i64:64-i128:128-f80:128-n8:16:32:64-S128"
target triple = "x86_64-pc-linux-gnu"

%"class.ncnn::Padding" = type { %"class.ncnn::Layer", i32, i32, i32, i32, i32, float, i32, i32, i32, %"class.ncnn::Mat" }
%"class.ncnn::Layer" = type { ptr, i8, i8, i8, i8, i8, i8, i8, i8, i8, i8, i8, i8, i8, i8, i8, i8, i8, i8, i8, i8, i32, ptr, i32, %"class.std::__cxx11::basic_string", %"class.std::__cxx11::basic_string", %"class.std::vector", %"class.std::vector", %"class.std::vector.3", %"class.std::vector.3" }
%"class.std::__cxx11::basic_string" = type { %"struct.std::__cxx11::basic_string<char>::_Alloc_hider", i64, %union.anon }
%"struct.std::__cxx11::basic_string<char>::_Alloc_hider" = type { ptr }
%union.anon = type { i64, [8 x i8] }
%"class.std::vector" = type { %"struct.std::_Vector_base" }
%"struct.std::_Vector_base" = type { %"struct.std::_Vector_base<int, std::allocator<int>>::_Vector_impl" }
%"struct.std::_Vector_base<int, std::allocator<int>>::_Vector_impl" = type { %"struct.std::_Vector_base<int, std::allocator<int>>::_Vector_impl_data" }
%"struct.std::_Vector_base<int, std::allocator<int>>::_Vector_impl_data" = type { ptr, ptr, ptr }
%"class.std::vector.3" = type { %"struct.std::_Vector_base.4" }
%"struct.std::_Vector_base.4" = type { %"struct.std::_Vector_base<ncnn::Mat, std::allocator<ncnn::Mat>>::_Vector_impl" }
%"struct.std::_Vector_base<ncnn::Mat, std::allocator<ncnn::Mat>>::_Vector_impl" = type { %"struct.std::_Vector_base<ncnn::Mat, std::allocator<ncnn::Mat>>::_Vector_impl_data" }
%"struct.std::_Vector_base<ncnn::Mat, std::allocator<ncnn::Mat>>::_Vector_impl_data" = type { ptr, ptr, ptr }
%"class.ncnn::Mat" = type { ptr, ptr, i64, i32, ptr, i32, i32, i32, i32, i32, i64 }

; Function Attrs: mustprogress uwtable
define hidden noundef i32 @_ZN4ncnn7Padding10load_paramERKNS_9ParamDictE(ptr noundef nonnull align 8 dereferenceable(320) %0, ptr noundef nonnull align 8 dereferenceable(16) %1) unnamed_addr #1 align 2 {
  %3 = alloca ptr, align 8
  %4 = alloca ptr, align 8
  store ptr %0, ptr %3, align 8, !tbaa !4
  store ptr %1, ptr %4, align 8, !tbaa !11
  %5 = load ptr, ptr %3, align 8
  %6 = load ptr, ptr %4, align 8, !tbaa !11
  %7 = call noundef i32 @_ZNK4ncnn9ParamDict3getEii(ptr noundef nonnull align 8 dereferenceable(16) %6, i32 noundef 0, i32 noundef 0)
  %8 = getelementptr inbounds nuw %"class.ncnn::Padding", ptr %5, i32 0, i32 1
  store i32 %7, ptr %8, align 8, !tbaa !13
  %9 = load ptr, ptr %4, align 8, !tbaa !11
  %10 = call noundef i32 @_ZNK4ncnn9ParamDict3getEii(ptr noundef nonnull align 8 dereferenceable(16) %9, i32 noundef 1, i32 noundef 0)
  %11 = getelementptr inbounds nuw %"class.ncnn::Padding", ptr %5, i32 0, i32 2
  store i32 %10, ptr %11, align 4, !tbaa !35
  %12 = load ptr, ptr %4, align 8, !tbaa !11
  %13 = call noundef i32 @_ZNK4ncnn9ParamDict3getEii(ptr noundef nonnull align 8 dereferenceable(16) %12, i32 noundef 2, i32 noundef 0)
  %14 = getelementptr inbounds nuw %"class.ncnn::Padding", ptr %5, i32 0, i32 3
  store i32 %13, ptr %14, align 8, !tbaa !36
  %15 = load ptr, ptr %4, align 8, !tbaa !11
  %16 = call noundef i32 @_ZNK4ncnn9ParamDict3getEii(ptr noundef nonnull align 8 dereferenceable(16) %15, i32 noundef 3, i32 noundef 0)
  %17 = getelementptr inbounds nuw %"class.ncnn::Padding", ptr %5, i32 0, i32 4
  store i32 %16, ptr %17, align 4, !tbaa !37
  %18 = load ptr, ptr %4, align 8, !tbaa !11
  %19 = call noundef i32 @_ZNK4ncnn9ParamDict3getEii(ptr noundef nonnull align 8 dereferenceable(16) %18, i32 noundef 4, i32 noundef 0)
  %20 = getelementptr inbounds nuw %"class.ncnn::Padding", ptr %5, i32 0, i32 5
  store i32 %19, ptr %20, align 8, !tbaa !38
  %21 = load ptr, ptr %4, align 8, !tbaa !11
  %22 = call fast noundef nofpclass(nan inf) float @_ZNK4ncnn9ParamDict3getEif(ptr noundef nonnull align 8 dereferenceable(16) %21, i32 noundef 5, float noundef nofpclass(nan inf) 0.000000e+00)
  %23 = getelementptr inbounds nuw %"class.ncnn::Padding", ptr %5, i32 0, i32 6
  store float %22, ptr %23, align 4, !tbaa !39
  %24 = load ptr, ptr %4, align 8, !tbaa !11
  %25 = call noundef i32 @_ZNK4ncnn9ParamDict3getEii(ptr noundef nonnull align 8 dereferenceable(16) %24, i32 noundef 6, i32 noundef 0)
  %26 = getelementptr inbounds nuw %"class.ncnn::Padding", ptr %5, i32 0, i32 9
  store i32 %25, ptr %26, align 8, !tbaa !40
  %27 = load ptr, ptr %4, align 8, !tbaa !11
  %28 = call noundef i32 @_ZNK4ncnn9ParamDict3getEii(ptr noundef nonnull align 8 dereferenceable(16) %27, i32 noundef 7, i32 noundef 0)
  %29 = getelementptr inbounds nuw %"class.ncnn::Padding", ptr %5, i32 0, i32 7
  store i32 %28, ptr %29, align 8, !tbaa !41
  %30 = load ptr, ptr %4, align 8, !tbaa !11
  %31 = call noundef i32 @_ZNK4ncnn9ParamDict3getEii(ptr noundef nonnull align 8 dereferenceable(16) %30, i32 noundef 8, i32 noundef 0)
  %32 = getelementptr inbounds nuw %"class.ncnn::Padding", ptr %5, i32 0, i32 8
  store i32 %31, ptr %32, align 4, !tbaa !42
  ret i32 0
}